; Function Attrs: null_pointer_is_valid sspstrong uwtable
define hidden i32 @srvsvc_dissect_struct_NetShareInfo501(ptr noundef %0, i32 noundef %1, ptr noundef %2, ptr noundef %3, ptr noundef %4, ptr noundef %5, i32 noundef %6, i32 %7) local_unnamed_addr #0 {
  %9 = alloca i32, align 4
  %10 = getelementptr inbounds nuw i8, ptr %4, i64 64
  %11 = load ptr, ptr %10, align 8
  %12 = getelementptr inbounds nuw i8, ptr %11, i64 96
  %13 = load i32, ptr %12, align 8
  %14 = and i32 %13, 1
  %.not = icmp eq i32 %14, 0
  %15 = getelementptr inbounds nuw i8, ptr %4, i64 25
  %16 = load i8, ptr %15, align 1, !range !6, !noundef !7
  %17 = trunc nuw i8 %16 to i1
  br i1 %.not, label %23, label %18

18:                                               ; preds = %8
  %19 = and i32 %1, 7
  %.not53 = icmp eq i32 %19, 0
  %or.cond = or i1 %.not53, %17
  br i1 %or.cond, label %28, label %20

20:                                               ; preds = %18
  %21 = and i32 %1, -8
  %22 = add i32 %21, 8
  br label %28

23:                                               ; preds = %8
  %24 = and i32 %1, 3
  %.not52 = icmp eq i32 %24, 0
  %or.cond57 = or i1 %.not52, %17
  br i1 %or.cond57, label %28, label %25

25:                                               ; preds = %23
  %26 = and i32 %1, -4
  %27 = add i32 %26, 4
  br label %28

28:                                               ; preds = %23, %25, %18, %20
  %.0 = phi i32 [ %1, %18 ], [ %22, %20 ], [ %1, %23 ], [ %27, %25 ]
  %.not54 = icmp eq ptr %3, null
  br i1 %.not54, label %33, label %29

29:                                               ; preds = %28
  %30 = tail call ptr @proto_tree_add_item(ptr noundef nonnull %3, i32 noundef %6, ptr noundef %0, i32 noundef %.0, i32 noundef -1, i32 noundef 0)
  %31 = load i32, ptr @ett_srvsvc_srvsvc_NetShareInfo501, align 4
  %32 = tail call ptr @proto_item_add_subtree(ptr noundef %30, i32 noundef %31)
  br label %33

33:                                               ; preds = %29, %28
  %.050 = phi ptr [ %30, %29 ], [ null, %28 ]
  %.049 = phi ptr [ %32, %29 ], [ null, %28 ]
  %34 = load i32, ptr @hf_srvsvc_srvsvc_NetShareInfo501_name, align 4
  %35 = tail call i32 @dissect_ndr_embedded_pointer(ptr noundef %0, i32 noundef %.0, ptr noundef %2, ptr noundef %.049, ptr noundef %4, ptr noundef %5, ptr noundef nonnull @srvsvc_dissect_element_NetShareInfo501_name_, i32 noundef 2, ptr noundef nonnull @.str.1141, i32 noundef %34)
  %36 = load i32, ptr @hf_srvsvc_srvsvc_NetShareInfo501_type, align 4
  call void @llvm.lifetime.start.p0(i64 4, ptr nonnull %9) #4
  store i32 0, ptr %9, align 4
  %37 = call i32 @dissect_ndr_uint32(ptr noundef %0, i32 noundef %35, ptr noundef %2, ptr noundef %.049, ptr noundef %4, ptr noundef %5, i32 noundef %36, ptr noundef nonnull %9)
  call void @llvm.lifetime.end.p0(i64 4, ptr nonnull %9) #4
  %38 = load i32, ptr @hf_srvsvc_srvsvc_NetShareInfo501_comment, align 4
  %39 = call i32 @dissect_ndr_embedded_pointer(ptr noundef %0, i32 noundef %37, ptr noundef %2, ptr noundef %.049, ptr noundef %4, ptr noundef %5, ptr noundef nonnull @srvsvc_dissect_element_NetShareInfo501_comment_, i32 noundef 2, ptr noundef nonnull @.str.1143, i32 noundef %38)
  %40 = load i32, ptr @hf_srvsvc_srvsvc_NetShareInfo501_csc_policy, align 4
  %41 = call i32 @PIDL_dissect_uint32(ptr noundef %0, i32 noundef %39, ptr noundef %2, ptr noundef %.049, ptr noundef %4, ptr noundef %5, i32 noundef %40, i32 noundef 0)
  %42 = sub i32 %41, %.0
  call void @proto_item_set_len(ptr noundef %.050, i32 noundef %42)
  %43 = load ptr, ptr %10, align 8
  %44 = getelementptr inbounds nuw i8, ptr %43, i64 96
  %45 = load i32, ptr %44, align 8
  %46 = and i32 %45, 1
  %.not55 = icmp eq i32 %46, 0
  br i1 %.not55, label %55, label %47

47:                                               ; preds = %33
  %48 = getelementptr inbounds nuw i8, ptr %4, i64 25
  %49 = load i8, ptr %48, align 1, !range !6, !noundef !7
  %50 = trunc nuw i8 %49 to i1
  %51 = and i32 %41, 7
  %.not56 = icmp eq i32 %51, 0
  %or.cond58 = or i1 %.not56, %50
  br i1 %or.cond58, label %55, label %52

52:                                               ; preds = %47
  %53 = and i32 %41, -8
  %54 = add i32 %53, 8
  br label %55

55:                                               ; preds = %52, %47, %33
  %.1 = phi i32 [ %41, %47 ], [ %54, %52 ], [ %41, %33 ]
  ret i32 %.1
}